; Function Attrs: mustprogress nofree norecurse nosync nounwind willreturn memory(none) uwtable
define hidden noundef zeroext i1 @_ZN4cvc58internal6theory11quantifiers8TermUtil7isAssocENS0_4kind6Kind_tEb(i32 noundef %0, i1 noundef zeroext %1) local_unnamed_addr #8 align 2 {
  %3 = and i32 %0, -2
  %or.cond = icmp eq i32 %3, 254
  %or.cond60 = and i1 %1, %or.cond
  br i1 %or.cond60, label %switch.edge, label %4

4:                                                ; preds = %2
  switch i32 %0, label %5 [
    i32 315, label %switch.edge
    i32 286, label %switch.edge
    i32 280, label %switch.edge
    i32 279, label %switch.edge
    i32 255, label %switch.edge
    i32 254, label %switch.edge
    i32 103, label %switch.edge
    i32 101, label %switch.edge
    i32 100, label %switch.edge
    i32 96, label %switch.edge
    i32 95, label %switch.edge
    i32 93, label %switch.edge
    i32 92, label %switch.edge
    i32 41, label %switch.edge
    i32 40, label %switch.edge
    i32 39, label %switch.edge
    i32 25, label %switch.edge
    i32 24, label %switch.edge
    i32 22, label %switch.edge
    i32 249, label %switch.edge
  ]

5:                                                ; preds = %4
  br label %switch.edge

switch.edge:                                      ; preds = %4, %5, %4, %4, %4, %4, %4, %4, %4, %4, %4, %4, %4, %4, %4, %4, %4, %4, %4, %4, %4, %2
  %.0 = phi i1 [ false, %2 ], [ true, %4 ], [ false, %5 ], [ true, %4 ], [ true, %4 ], [ true, %4 ], [ true, %4 ], [ true, %4 ], [ true, %4 ], [ true, %4 ], [ true, %4 ], [ true, %4 ], [ true, %4 ], [ true, %4 ], [ true, %4 ], [ true, %4 ], [ true, %4 ], [ true, %4 ], [ true, %4 ], [ true, %4 ], [ true, %4 ], [ true, %4 ]
  ret i1 %.0
}